target datalayout = "e-m:e-p270:32:32-p271:32:32-p272:64:64-i64:64-i128:128-f80:128-n8:16:32:64-S128"
target triple = "x86_64-pc-linux-gnu"

%struct.gres_job_state = type { i32, ptr, i16, i16, i64, i64, i64, i64, i64, i16, i16, i64, i32, ptr, ptr, ptr, ptr, i32, i64, i32, ptr, ptr, ptr, ptr, ptr, ptr }

; Function Attrs: nounwind uwtable
define dso_local void @gres_job_clear_alloc(ptr noundef %0) #0 {
  %2 = alloca ptr, align 8
  %3 = alloca i32, align 4
  store ptr %0, ptr %2, align 8
  call void @llvm.lifetime.start.p0(i64 4, ptr %3) #11
  store i32 0, ptr %3, align 4
  br label %4

4:                                                ; preds = %98, %1
  %5 = load i32, ptr %3, align 4
  %6 = load ptr, ptr %2, align 8
  %7 = getelementptr inbounds nuw %struct.gres_job_state, ptr %6, i32 0, i32 19
  %8 = load i32, ptr %7, align 8
  %9 = icmp ult i32 %5, %8
  br i1 %9, label %11, label %10

10:                                               ; preds = %4
  call void @llvm.lifetime.end.p0(i64 4, ptr %3) #11
  br label %101

11:                                               ; preds = %4
  %12 = load ptr, ptr %2, align 8
  %13 = getelementptr inbounds nuw %struct.gres_job_state, ptr %12, i32 0, i32 20
  %14 = load ptr, ptr %13, align 8
  %15 = icmp ne ptr %14, null
  br i1 %15, label %16, label %42

16:                                               ; preds = %11
  br label %17

17:                                               ; preds = %16
  %18 = load ptr, ptr %2, align 8
  %19 = getelementptr inbounds nuw %struct.gres_job_state, ptr %18, i32 0, i32 20
  %20 = load ptr, ptr %19, align 8
  %21 = load i32, ptr %3, align 4
  %22 = sext i32 %21 to i64
  %23 = getelementptr inbounds ptr, ptr %20, i64 %22
  %24 = load ptr, ptr %23, align 8
  %25 = icmp ne ptr %24, null
  br i1 %25, label %26, label %33

26:                                               ; preds = %17
  %27 = load ptr, ptr %2, align 8
  %28 = getelementptr inbounds nuw %struct.gres_job_state, ptr %27, i32 0, i32 20
  %29 = load ptr, ptr %28, align 8
  %30 = load i32, ptr %3, align 4
  %31 = sext i32 %30 to i64
  %32 = getelementptr inbounds ptr, ptr %29, i64 %31
  call void @slurm_bit_free(ptr noundef %32)
  br label %33

33:                                               ; preds = %26, %17
  %34 = load ptr, ptr %2, align 8
  %35 = getelementptr inbounds nuw %struct.gres_job_state, ptr %34, i32 0, i32 20
  %36 = load ptr, ptr %35, align 8
  %37 = load i32, ptr %3, align 4
  %38 = sext i32 %37 to i64
  %39 = getelementptr inbounds ptr, ptr %36, i64 %38
  store ptr null, ptr %39, align 8
  br label %40

40:                                               ; preds = %33
  br label %41

41:                                               ; preds = %40
  br label %42

42:                                               ; preds = %41, %11
  %43 = load ptr, ptr %2, align 8
  %44 = getelementptr inbounds nuw %struct.gres_job_state, ptr %43, i32 0, i32 23
  %45 = load ptr, ptr %44, align 8
  %46 = icmp ne ptr %45, null
  br i1 %46, label %47, label %73

47:                                               ; preds = %42
  br label %48

48:                                               ; preds = %47
  %49 = load ptr, ptr %2, align 8
  %50 = getelementptr inbounds nuw %struct.gres_job_state, ptr %49, i32 0, i32 23
  %51 = load ptr, ptr %50, align 8
  %52 = load i32, ptr %3, align 4
  %53 = sext i32 %52 to i64
  %54 = getelementptr inbounds ptr, ptr %51, i64 %53
  %55 = load ptr, ptr %54, align 8
  %56 = icmp ne ptr %55, null
  br i1 %56, label %57, label %64

57:                                               ; preds = %48
  %58 = load ptr, ptr %2, align 8
  %59 = getelementptr inbounds nuw %struct.gres_job_state, ptr %58, i32 0, i32 23
  %60 = load ptr, ptr %59, align 8
  %61 = load i32, ptr %3, align 4
  %62 = sext i32 %61 to i64
  %63 = getelementptr inbounds ptr, ptr %60, i64 %62
  call void @slurm_bit_free(ptr noundef %63)
  br label %64

64:                                               ; preds = %57, %48
  %65 = load ptr, ptr %2, align 8
  %66 = getelementptr inbounds nuw %struct.gres_job_state, ptr %65, i32 0, i32 23
  %67 = load ptr, ptr %66, align 8
  %68 = load i32, ptr %3, align 4
  %69 = sext i32 %68 to i64
  %70 = getelementptr inbounds ptr, ptr %67, i64 %69
  store ptr null, ptr %70, align 8
  br label %71

71:                                               ; preds = %64
  br label %72

72:                                               ; preds = %71
  br label %73

73:                                               ; preds = %72, %42
  %74 = load ptr, ptr %2, align 8
  %75 = getelementptr inbounds nuw %struct.gres_job_state, ptr %74, i32 0, i32 22
  %76 = load ptr, ptr %75, align 8
  %77 = icmp ne ptr %76, null
  br i1 %77, label %78, label %85

78:                                               ; preds = %73
  %79 = load ptr, ptr %2, align 8
  %80 = getelementptr inbounds nuw %struct.gres_job_state, ptr %79, i32 0, i32 22
  %81 = load ptr, ptr %80, align 8
  %82 = load i32, ptr %3, align 4
  %83 = sext i32 %82 to i64
  %84 = getelementptr inbounds ptr, ptr %81, i64 %83
  call void @slurm_xfree(ptr noundef %84)
  br label %85

85:                                               ; preds = %78, %73
  %86 = load ptr, ptr %2, align 8
  %87 = getelementptr inbounds nuw %struct.gres_job_state, ptr %86, i32 0, i32 25
  %88 = load ptr, ptr %87, align 8
  %89 = icmp ne ptr %88, null
  br i1 %89, label %90, label %97

90:                                               ; preds = %85
  %91 = load ptr, ptr %2, align 8
  %92 = getelementptr inbounds nuw %struct.gres_job_state, ptr %91, i32 0, i32 25
  %93 = load ptr, ptr %92, align 8
  %94 = load i32, ptr %3, align 4
  %95 = sext i32 %94 to i64
  %96 = getelementptr inbounds ptr, ptr %93, i64 %95
  call void @slurm_xfree(ptr noundef %96)
  br label %97

97:                                               ; preds = %90, %85
  br label %98

98:                                               ; preds = %97
  %99 = load i32, ptr %3, align 4
  %100 = add nsw i32 %99, 1
  store i32 %100, ptr %3, align 4
  br label %4, !llvm.loop !79

101:                                              ; preds = %10
  %102 = load ptr, ptr %2, align 8
  %103 = getelementptr inbounds nuw %struct.gres_job_state, ptr %102, i32 0, i32 20
  call void @slurm_xfree(ptr noundef %103)
  %104 = load ptr, ptr %2, align 8
  %105 = getelementptr inbounds nuw %struct.gres_job_state, ptr %104, i32 0, i32 23
  call void @slurm_xfree(ptr noundef %105)
  %106 = load ptr, ptr %2, align 8
  %107 = getelementptr inbounds nuw %struct.gres_job_state, ptr %106, i32 0, i32 22
  call void @slurm_xfree(ptr noundef %107)
  %108 = load ptr, ptr %2, align 8
  %109 = getelementptr inbounds nuw %struct.gres_job_state, ptr %108, i32 0, i32 25
  call void @slurm_xfree(ptr noundef %109)
  %110 = load ptr, ptr %2, align 8
  %111 = getelementptr inbounds nuw %struct.gres_job_state, ptr %110, i32 0, i32 24
  call void @slurm_xfree(ptr noundef %111)
  %112 = load ptr, ptr %2, align 8
  %113 = getelementptr inbounds nuw %struct.gres_job_state, ptr %112, i32 0, i32 21
  call void @slurm_xfree(ptr noundef %113)
  %114 = load ptr, ptr %2, align 8
  %115 = getelementptr inbounds nuw %struct.gres_job_state, ptr %114, i32 0, i32 19
  store i32 0, ptr %115, align 8
  ret void
}