; Function Attrs: nounwind uwtable
define dso_local void @gres_job_clear_alloc(ptr noundef %0) local_unnamed_addr #2 {
  %2 = getelementptr inbounds nuw i8, ptr %0, i64 136
  %3 = load i32, ptr %2, align 8
  %.not39 = icmp eq i32 %3, 0
  br i1 %.not39, label %._crit_edge, label %.lr.ph

.lr.ph:                                           ; preds = %1
  %4 = getelementptr inbounds nuw i8, ptr %0, i64 144
  %5 = getelementptr inbounds nuw i8, ptr %0, i64 168
  %6 = getelementptr inbounds nuw i8, ptr %0, i64 160
  %7 = getelementptr inbounds nuw i8, ptr %0, i64 184
  br label %14

._crit_edge:                                      ; preds = %40, %1
  %8 = getelementptr inbounds nuw i8, ptr %0, i64 144
  tail call void @slurm_xfree(ptr noundef nonnull %8) #28
  %9 = getelementptr inbounds nuw i8, ptr %0, i64 168
  tail call void @slurm_xfree(ptr noundef nonnull %9) #28
  %10 = getelementptr inbounds nuw i8, ptr %0, i64 160
  tail call void @slurm_xfree(ptr noundef nonnull %10) #28
  %11 = getelementptr inbounds nuw i8, ptr %0, i64 184
  tail call void @slurm_xfree(ptr noundef nonnull %11) #28
  %12 = getelementptr inbounds nuw i8, ptr %0, i64 176
  tail call void @slurm_xfree(ptr noundef nonnull %12) #28
  %13 = getelementptr inbounds nuw i8, ptr %0, i64 152
  tail call void @slurm_xfree(ptr noundef nonnull %13) #28
  store i32 0, ptr %2, align 8
  ret void

14:                                               ; preds = %.lr.ph, %40
  %indvars.iv = phi i64 [ 0, %.lr.ph ], [ %indvars.iv.next, %40 ]
  %15 = load ptr, ptr %4, align 8
  %.not = icmp eq ptr %15, null
  br i1 %.not, label %23, label %16

16:                                               ; preds = %14
  %17 = getelementptr inbounds nuw ptr, ptr %15, i64 %indvars.iv
  %18 = load ptr, ptr %17, align 8
  %.not33 = icmp eq ptr %18, null
  br i1 %.not33, label %20, label %19

19:                                               ; preds = %16
  tail call void @slurm_bit_free(ptr noundef nonnull %17) #28
  %.pre = load ptr, ptr %4, align 8
  br label %20

20:                                               ; preds = %19, %16
  %21 = phi ptr [ %.pre, %19 ], [ %15, %16 ]
  %22 = getelementptr inbounds nuw ptr, ptr %21, i64 %indvars.iv
  store ptr null, ptr %22, align 8
  br label %23

23:                                               ; preds = %20, %14
  %24 = load ptr, ptr %5, align 8
  %.not34 = icmp eq ptr %24, null
  br i1 %.not34, label %32, label %25

25:                                               ; preds = %23
  %26 = getelementptr inbounds nuw ptr, ptr %24, i64 %indvars.iv
  %27 = load ptr, ptr %26, align 8
  %.not35 = icmp eq ptr %27, null
  br i1 %.not35, label %29, label %28

28:                                               ; preds = %25
  tail call void @slurm_bit_free(ptr noundef nonnull %26) #28
  %.pre41 = load ptr, ptr %5, align 8
  br label %29

29:                                               ; preds = %28, %25
  %30 = phi ptr [ %.pre41, %28 ], [ %24, %25 ]
  %31 = getelementptr inbounds nuw ptr, ptr %30, i64 %indvars.iv
  store ptr null, ptr %31, align 8
  br label %32

32:                                               ; preds = %29, %23
  %33 = load ptr, ptr %6, align 8
  %.not36 = icmp eq ptr %33, null
  br i1 %.not36, label %36, label %34

34:                                               ; preds = %32
  %35 = getelementptr inbounds nuw ptr, ptr %33, i64 %indvars.iv
  tail call void @slurm_xfree(ptr noundef nonnull %35) #28
  br label %36

36:                                               ; preds = %34, %32
  %37 = load ptr, ptr %7, align 8
  %.not37 = icmp eq ptr %37, null
  br i1 %.not37, label %40, label %38

38:                                               ; preds = %36
  %39 = getelementptr inbounds nuw ptr, ptr %37, i64 %indvars.iv
  tail call void @slurm_xfree(ptr noundef nonnull %39) #28
  br label %40

40:                                               ; preds = %36, %38
  %indvars.iv.next = add nuw nsw i64 %indvars.iv, 1
  %41 = load i32, ptr %2, align 8
  %42 = zext i32 %41 to i64
  %43 = icmp samesign ult i64 %indvars.iv.next, %42
  br i1 %43, label %14, label %._crit_edge, !llvm.loop !97
}